target datalayout = "e-m:e-p270:32:32-p271:32:32-p272:64:64-i64:64-i128:128-f80:128-n8:16:32:64-S128"
target triple = "x86_64-unknown-linux-gnu"

%"struct.std::__cxx11::basic_string<char>::_Alloc_hider" = type { ptr }
%"class.std::basic_ios" = type { %"class.std::ios_base", ptr, i8, i8, ptr, ptr, ptr, ptr }
%"class.std::ios_base" = type { ptr, i64, i64, i32, i32, i32, ptr, %"struct.std::ios_base::_Words", [8 x %"struct.std::ios_base::_Words"], i32, ptr, %"class.std::locale" }
%"struct.std::ios_base::_Words" = type { ptr, i64 }
%"class.std::locale" = type { ptr }
%"class.std::__cxx11::basic_string" = type { %"struct.std::__cxx11::basic_string<char>::_Alloc_hider", i64, %union.anon }
%union.anon = type { i64, [8 x i8] }
%"class.std::basic_ostream.base" = type { ptr }
%"class.std::__cxx11::basic_stringbuf" = type { %"class.std::basic_streambuf", i32, %"class.std::__cxx11::basic_string" }
%"class.std::basic_streambuf" = type { ptr, ptr, ptr, ptr, ptr, ptr, ptr, %"class.std::locale" }
%"class.std::__cxx11::basic_ostringstream" = type { %"class.std::basic_ostream.base", %"class.std::__cxx11::basic_stringbuf", %"class.std::basic_ios" }

@_ZN4mold3elfL21all_symbols_read_hookE = internal global ptr null, align 8
@.str.47 = private unnamed_addr constant [32 x i8] c"register_all_symbols_read_hook\0A\00", align 1

; Function Attrs: mustprogress nounwind
define linkonce_odr dso_local noundef nonnull align 8 dereferenceable(112) ptr @_ZStlsINSt7__cxx1119basic_ostringstreamIcSt11char_traitsIcESaIcEEEA32_cEOT_S8_RKT0_(ptr noundef nonnull align 8 dereferenceable(112) %__os, ptr noundef nonnull align 1 dereferenceable(32) %__x) #4 comdat {
entry:
  %__os.addr = alloca ptr, align 8
  %__x.addr = alloca ptr, align 8
  store ptr %__os, ptr %__os.addr, align 8
  store ptr %__x, ptr %__x.addr, align 8
  %0 = load ptr, ptr %__os.addr, align 8
  %1 = load ptr, ptr %__x.addr, align 8
  %arraydecay = getelementptr inbounds [32 x i8], ptr %1, i64 0, i64 0
  %call = call noundef nonnull align 8 dereferenceable(8) ptr @_ZStlsISt11char_traitsIcEERSt13basic_ostreamIcT_ES5_PKc(ptr noundef nonnull align 8 dereferenceable(8) %0, ptr noundef %arraydecay)
  %2 = load ptr, ptr %__os.addr, align 8
  ret ptr %2
}

; Function Attrs: mustprogress nounwind
define internal noundef i32 @_ZN4mold3elfL30register_all_symbols_read_hookINS0_5ALPHAEEENS_12PluginStatusEPFS3_vE(ptr noundef %fn) #4 {
entry:
  %fn.addr = alloca ptr, align 8
  %ref.tmp = alloca %"class.std::__cxx11::basic_ostringstream", align 8
  store ptr %fn, ptr %fn.addr, align 8
  call void @_ZNSt7__cxx1119basic_ostringstreamIcSt11char_traitsIcESaIcEEC1Ev(ptr noundef nonnull align 8 dereferenceable(112) %ref.tmp)
  %call = call noundef nonnull align 8 dereferenceable(112) ptr @_ZStlsINSt7__cxx1119basic_ostringstreamIcSt11char_traitsIcESaIcEEEA32_cEOT_S8_RKT0_(ptr noundef nonnull align 8 dereferenceable(112) %ref.tmp, ptr noundef nonnull align 1 dereferenceable(32) @.str.47)
  call void @_ZNSt7__cxx1119basic_ostringstreamIcSt11char_traitsIcESaIcEED1Ev(ptr noundef nonnull align 8 dereferenceable(112) %ref.tmp) #3
  %0 = load ptr, ptr %fn.addr, align 8
  store ptr %0, ptr @_ZN4mold3elfL21all_symbols_read_hookE, align 8
  ret i32 0
}